target datalayout = "e-m:e-p270:32:32-p271:32:32-p272:64:64-i64:64-i128:128-f80:128-n8:16:32:64-S128"
target triple = "x86_64-pc-linux-gnu"

%"class.gmx::FlagsTemplate" = type { i64 }
%"class.gmx::(anonymous namespace)::FileTypeHandler" = type { i32, i32, ptr }
%"class.std::__cxx11::basic_string" = type { %"struct.std::__cxx11::basic_string<char>::_Alloc_hider", i64, %union.anon }
%"struct.std::__cxx11::basic_string<char>::_Alloc_hider" = type { ptr }
%union.anon = type { i64, [8 x i8] }
%"class.gmx::FileNameOptionStorage" = type <{ %"class.gmx::OptionStorageTemplateSimple.base", [7 x i8], %"class.gmx::FileNameOptionInfo", ptr, i32, [4 x i8], ptr, i8, i8, i8, i8, [4 x i8] }>
%"class.gmx::OptionStorageTemplateSimple.base" = type <{ %"class.gmx::OptionStorageTemplate", %"class.gmx::OptionValueConverterSimple", i8 }>
%"class.gmx::OptionStorageTemplate" = type { %"class.gmx::AbstractOptionStorage.base", %"class.std::vector", %"class.std::unique_ptr", %"class.std::unique_ptr.5" }
%"class.gmx::AbstractOptionStorage.base" = type <{ ptr, %"class.std::__cxx11::basic_string", %"class.std::__cxx11::basic_string", %"class.gmx::FlagsTemplate", ptr, i32, i32, i8, i8 }>
%"class.std::vector" = type { %"struct.std::_Vector_base" }
%"struct.std::_Vector_base" = type { %"struct.std::_Vector_base<std::__cxx11::basic_string<char>, std::allocator<std::__cxx11::basic_string<char>>>::_Vector_impl" }
%"struct.std::_Vector_base<std::__cxx11::basic_string<char>, std::allocator<std::__cxx11::basic_string<char>>>::_Vector_impl" = type { %"struct.std::_Vector_base<std::__cxx11::basic_string<char>, std::allocator<std::__cxx11::basic_string<char>>>::_Vector_impl_data" }
%"struct.std::_Vector_base<std::__cxx11::basic_string<char>, std::allocator<std::__cxx11::basic_string<char>>>::_Vector_impl_data" = type { ptr, ptr, ptr }
%"class.std::unique_ptr" = type { %"struct.std::__uniq_ptr_data" }
%"struct.std::__uniq_ptr_data" = type { %"class.std::__uniq_ptr_impl" }
%"class.std::__uniq_ptr_impl" = type { %"class.std::tuple" }
%"class.std::tuple" = type { %"struct.std::_Tuple_impl" }
%"struct.std::_Tuple_impl" = type { %"struct.std::_Head_base.4" }
%"struct.std::_Head_base.4" = type { ptr }
%"class.std::unique_ptr.5" = type { %"struct.std::__uniq_ptr_data.6" }
%"struct.std::__uniq_ptr_data.6" = type { %"class.std::__uniq_ptr_impl.7" }
%"class.std::__uniq_ptr_impl.7" = type { %"class.std::tuple.8" }
%"class.std::tuple.8" = type { %"struct.std::_Tuple_impl.9" }
%"struct.std::_Tuple_impl.9" = type { %"struct.std::_Head_base.12" }
%"struct.std::_Head_base.12" = type { ptr }
%"class.gmx::OptionValueConverterSimple" = type { %"class.std::map" }
%"class.std::map" = type { %"class.std::_Rb_tree" }
%"class.std::_Rb_tree" = type { %"struct.std::_Rb_tree<std::type_index, std::pair<const std::type_index, std::function<std::__cxx11::basic_string<char> (const gmx::Any &)>>, std::_Select1st<std::pair<const std::type_index, std::function<std::__cxx11::basic_string<char> (const gmx::Any &)>>>, std::less<std::type_index>>::_Rb_tree_impl" }
%"struct.std::_Rb_tree<std::type_index, std::pair<const std::type_index, std::function<std::__cxx11::basic_string<char> (const gmx::Any &)>>, std::_Select1st<std::pair<const std::type_index, std::function<std::__cxx11::basic_string<char> (const gmx::Any &)>>>, std::less<std::type_index>>::_Rb_tree_impl" = type { %"struct.std::_Rb_tree_key_compare", %"struct.std::_Rb_tree_header" }
%"struct.std::_Rb_tree_key_compare" = type { %"struct.std::less" }
%"struct.std::less" = type { i8 }
%"struct.std::_Rb_tree_header" = type { %"struct.std::_Rb_tree_node_base", i64 }
%"struct.std::_Rb_tree_node_base" = type { i32, ptr, ptr, ptr }
%"class.gmx::FileNameOptionInfo" = type { %"class.gmx::OptionInfo" }
%"class.gmx::OptionInfo" = type { ptr, ptr }

; Function Attrs: mustprogress nounwind uwtable
define internal noundef i32 @_ZNK3gmx12_GLOBAL__N_115FileTypeHandler14extensionCountEv(ptr noundef nonnull align 8 dereferenceable(16) %0) #1 align 2 {
  %2 = alloca ptr, align 8
  store ptr %0, ptr %2, align 8
  %3 = load ptr, ptr %2, align 8
  %4 = getelementptr inbounds %"class.gmx::(anonymous namespace)::FileTypeHandler", ptr %3, i32 0, i32 1
  %5 = load i32, ptr %4, align 4
  ret i32 %5
}

; Function Attrs: mustprogress uwtable
define internal noundef zeroext i1 @_ZNK3gmx12_GLOBAL__N_115FileTypeHandler11isValidTypeEi(ptr noundef nonnull align 8 dereferenceable(16) %0, i32 noundef %1) #0 align 2 {
  %3 = alloca i1, align 1
  %4 = alloca ptr, align 8
  %5 = alloca i32, align 4
  %6 = alloca i32, align 4
  store ptr %0, ptr %4, align 8
  store i32 %1, ptr %5, align 4
  %7 = load ptr, ptr %4, align 8
  %8 = getelementptr inbounds %"class.gmx::(anonymous namespace)::FileTypeHandler", ptr %7, i32 0, i32 2
  %9 = load ptr, ptr %8, align 8
  %10 = icmp ne ptr %9, null
  br i1 %10, label %11, label %31

11:                                               ; preds = %2
  store i32 0, ptr %6, align 4
  br label %12

12:                                               ; preds = %27, %11
  %13 = load i32, ptr %6, align 4
  %14 = call noundef i32 @_ZNK3gmx12_GLOBAL__N_115FileTypeHandler14extensionCountEv(ptr noundef nonnull align 8 dereferenceable(16) %7)
  %15 = icmp slt i32 %13, %14
  br i1 %15, label %16, label %30

16:                                               ; preds = %12
  %17 = load i32, ptr %5, align 4
  %18 = getelementptr inbounds %"class.gmx::(anonymous namespace)::FileTypeHandler", ptr %7, i32 0, i32 2
  %19 = load ptr, ptr %18, align 8
  %20 = load i32, ptr %6, align 4
  %21 = sext i32 %20 to i64
  %22 = getelementptr inbounds i32, ptr %19, i64 %21
  %23 = load i32, ptr %22, align 4
  %24 = icmp eq i32 %17, %23
  br i1 %24, label %25, label %26

25:                                               ; preds = %16
  store i1 true, ptr %3, align 1
  br label %36

26:                                               ; preds = %16
  br label %27

27:                                               ; preds = %26
  %28 = load i32, ptr %6, align 4
  %29 = add nsw i32 %28, 1
  store i32 %29, ptr %6, align 4
  br label %12, !llvm.loop !4

30:                                               ; preds = %12
  store i1 false, ptr %3, align 1
  br label %36

31:                                               ; preds = %2
  %32 = load i32, ptr %5, align 4
  %33 = getelementptr inbounds %"class.gmx::(anonymous namespace)::FileTypeHandler", ptr %7, i32 0, i32 0
  %34 = load i32, ptr %33, align 8
  %35 = icmp eq i32 %32, %34
  store i1 %35, ptr %3, align 1
  br label %36

36:                                               ; preds = %31, %30, %25
  %37 = load i1, ptr %3, align 1
  ret i1 %37
}

; Function Attrs: mustprogress uwtable
define internal void @_ZN3gmx12_GLOBAL__N_115FileTypeHandlerC2Ei(ptr noundef nonnull align 8 dereferenceable(16) %0, i32 noundef %1) unnamed_addr #0 align 2 {
  %3 = alloca ptr, align 8
  %4 = alloca i32, align 4
  %5 = alloca i32, align 4
  store ptr %0, ptr %3, align 8
  store i32 %1, ptr %4, align 4
  %6 = load ptr, ptr %3, align 8
  %7 = getelementptr inbounds %"class.gmx::(anonymous namespace)::FileTypeHandler", ptr %6, i32 0, i32 0
  %8 = load i32, ptr %4, align 4
  store i32 %8, ptr %7, align 8
  %9 = getelementptr inbounds %"class.gmx::(anonymous namespace)::FileTypeHandler", ptr %6, i32 0, i32 1
  store i32 0, ptr %9, align 4
  %10 = getelementptr inbounds %"class.gmx::(anonymous namespace)::FileTypeHandler", ptr %6, i32 0, i32 2
  store ptr null, ptr %10, align 8
  %11 = getelementptr inbounds %"class.gmx::(anonymous namespace)::FileTypeHandler", ptr %6, i32 0, i32 0
  %12 = load i32, ptr %11, align 8
  %13 = icmp sge i32 %12, 0
  br i1 %13, label %14, label %39

14:                                               ; preds = %2
  %15 = getelementptr inbounds %"class.gmx::(anonymous namespace)::FileTypeHandler", ptr %6, i32 0, i32 0
  %16 = load i32, ptr %15, align 8
  %17 = call noundef i32 @_Z17ftp2generic_counti(i32 noundef %16)
  store i32 %17, ptr %5, align 4
  %18 = load i32, ptr %5, align 4
  %19 = icmp sgt i32 %18, 0
  br i1 %19, label %20, label %27

20:                                               ; preds = %14
  %21 = load i32, ptr %5, align 4
  %22 = getelementptr inbounds %"class.gmx::(anonymous namespace)::FileTypeHandler", ptr %6, i32 0, i32 1
  store i32 %21, ptr %22, align 4
  %23 = getelementptr inbounds %"class.gmx::(anonymous namespace)::FileTypeHandler", ptr %6, i32 0, i32 0
  %24 = load i32, ptr %23, align 8
  %25 = call noundef ptr @_Z16ftp2generic_listi(i32 noundef %24)
  %26 = getelementptr inbounds %"class.gmx::(anonymous namespace)::FileTypeHandler", ptr %6, i32 0, i32 2
  store ptr %25, ptr %26, align 8
  br label %38

27:                                               ; preds = %14
  %28 = getelementptr inbounds %"class.gmx::(anonymous namespace)::FileTypeHandler", ptr %6, i32 0, i32 0
  %29 = load i32, ptr %28, align 8
  %30 = call noundef ptr @_Z16ftp2ext_with_doti(i32 noundef %29)
  %31 = getelementptr inbounds i8, ptr %30, i64 0
  %32 = load i8, ptr %31, align 1
  %33 = sext i8 %32 to i32
  %34 = icmp ne i32 %33, 0
  br i1 %34, label %35, label %37

35:                                               ; preds = %27
  %36 = getelementptr inbounds %"class.gmx::(anonymous namespace)::FileTypeHandler", ptr %6, i32 0, i32 1
  store i32 1, ptr %36, align 4
  br label %37

37:                                               ; preds = %35, %27
  br label %38

38:                                               ; preds = %37, %20
  br label %39

39:                                               ; preds = %38, %2
  ret void
}

; Function Attrs: mustprogress uwtable
define noundef zeroext i1 @_ZNK3gmx21FileNameOptionStorage11isValidTypeEi(ptr noundef nonnull align 8 dereferenceable(244) %0, i32 noundef %1) #0 align 2 {
  %3 = alloca ptr, align 8
  %4 = alloca i32, align 4
  %5 = alloca %"class.gmx::(anonymous namespace)::FileTypeHandler", align 8
  store ptr %0, ptr %3, align 8
  store i32 %1, ptr %4, align 4
  %6 = load ptr, ptr %3, align 8
  %7 = getelementptr inbounds %"class.gmx::FileNameOptionStorage", ptr %6, i32 0, i32 4
  %8 = load i32, ptr %7, align 8
  call void @_ZN3gmx12_GLOBAL__N_115FileTypeHandlerC2Ei(ptr noundef nonnull align 8 dereferenceable(16) %5, i32 noundef %8)
  %9 = load i32, ptr %4, align 4
  %10 = call noundef zeroext i1 @_ZNK3gmx12_GLOBAL__N_115FileTypeHandler11isValidTypeEi(ptr noundef nonnull align 8 dereferenceable(16) %5, i32 noundef %9)
  ret i1 %10
}