; Function Attrs: mustprogress uwtable
define noundef zeroext i1 @_ZNK3gmx21FileNameOptionStorage11isValidTypeEi(ptr nocapture noundef nonnull readonly align 8 dereferenceable(244) %0, i32 noundef %1) local_unnamed_addr #0 align 2 {
  %3 = getelementptr inbounds i8, ptr %0, i64 224
  %4 = load i32, ptr %3, align 8
  %5 = icmp sgt i32 %4, -1
  br i1 %5, label %6, label %_ZN3gmx12_GLOBAL__N_115FileTypeHandlerC2Ei.exit.thread

6:                                                ; preds = %2
  %7 = tail call noundef i32 @_Z17ftp2generic_counti(i32 noundef %4)
  %8 = icmp sgt i32 %7, 0
  br i1 %8, label %_ZN3gmx12_GLOBAL__N_115FileTypeHandlerC2Ei.exit, label %9

9:                                                ; preds = %6
  %10 = tail call noundef ptr @_Z16ftp2ext_with_doti(i32 noundef %4)
  br label %_ZN3gmx12_GLOBAL__N_115FileTypeHandlerC2Ei.exit.thread

_ZN3gmx12_GLOBAL__N_115FileTypeHandlerC2Ei.exit:  ; preds = %6
  %11 = tail call noundef ptr @_Z16ftp2generic_listi(i32 noundef %4)
  %.not.i1 = icmp eq ptr %11, null
  br i1 %.not.i1, label %_ZN3gmx12_GLOBAL__N_115FileTypeHandlerC2Ei.exit.thread, label %.lr.ph.preheader.i

.lr.ph.preheader.i:                               ; preds = %_ZN3gmx12_GLOBAL__N_115FileTypeHandlerC2Ei.exit
  %wide.trip.count.i = zext nneg i32 %7 to i64
  br label %.lr.ph.i

.lr.ph.i:                                         ; preds = %.lr.ph.i, %.lr.ph.preheader.i
  %indvars.iv.i = phi i64 [ 0, %.lr.ph.preheader.i ], [ %indvars.iv.next.i, %.lr.ph.i ]
  %12 = getelementptr inbounds i32, ptr %11, i64 %indvars.iv.i
  %13 = load i32, ptr %12, align 4
  %14 = icmp eq i32 %13, %1
  %indvars.iv.next.i = add nuw nsw i64 %indvars.iv.i, 1
  %exitcond.not.i = icmp eq i64 %indvars.iv.next.i, %wide.trip.count.i
  %or.cond = select i1 %14, i1 true, i1 %exitcond.not.i
  br i1 %or.cond, label %_ZNK3gmx12_GLOBAL__N_115FileTypeHandler11isValidTypeEi.exit, label %.lr.ph.i, !llvm.loop !4

_ZN3gmx12_GLOBAL__N_115FileTypeHandlerC2Ei.exit.thread: ; preds = %9, %2, %_ZN3gmx12_GLOBAL__N_115FileTypeHandlerC2Ei.exit
  %15 = icmp eq i32 %4, %1
  br label %_ZNK3gmx12_GLOBAL__N_115FileTypeHandler11isValidTypeEi.exit

_ZNK3gmx12_GLOBAL__N_115FileTypeHandler11isValidTypeEi.exit: ; preds = %.lr.ph.i, %_ZN3gmx12_GLOBAL__N_115FileTypeHandlerC2Ei.exit.thread
  %.06.i = phi i1 [ %15, %_ZN3gmx12_GLOBAL__N_115FileTypeHandlerC2Ei.exit.thread ], [ %14, %.lr.ph.i ]
  ret i1 %.06.i
}